; Function Attrs: nounwind uwtable
define ptr @l_Lake_mathLeanConfigFileContents(ptr noundef %0, ptr noundef %1) local_unnamed_addr #1 {
  %3 = tail call ptr @l_String_quote(ptr noundef %0) #6
  tail call void @lean_inc_heartbeat() #6
  %4 = tail call noalias ptr @mi_malloc_small(i64 noundef 16) #6
  %5 = icmp eq ptr %4, null
  br i1 %5, label %6, label %lean_alloc_ctor.exit

6:                                                ; preds = %2
  tail call void @lean_internal_panic_out_of_memory() #7
  unreachable

lean_alloc_ctor.exit:                             ; preds = %2
  %7 = getelementptr inbounds nuw i8, ptr %4, i64 4
  store i32 1, ptr %4, align 4, !tbaa !8
  store i32 50397200, ptr %7, align 4
  %8 = getelementptr inbounds nuw i8, ptr %4, i64 8
  store ptr %3, ptr %8, align 8, !tbaa !4
  %9 = load ptr, ptr @l_Std_Format_defWidth, align 8, !tbaa !4
  %10 = tail call ptr @lean_format_pretty(ptr noundef nonnull %4, ptr noundef %9, ptr noundef nonnull inttoptr (i64 1 to ptr), ptr noundef nonnull inttoptr (i64 1 to ptr)) #6
  %11 = load ptr, ptr @l_Lake_stdLeanConfigFileContents___closed__1, align 8, !tbaa !4
  %12 = tail call ptr @lean_string_append(ptr noundef %11, ptr noundef %10) #6
  %13 = ptrtoint ptr %10 to i64
  %14 = and i64 %13, 1
  %.not = icmp eq i64 %14, 0
  br i1 %.not, label %15, label %lean_dec.exit

15:                                               ; preds = %lean_alloc_ctor.exit
  %16 = load i32, ptr %10, align 4, !tbaa !8
  %17 = icmp sgt i32 %16, 1
  br i1 %17, label %18, label %20, !prof !11

18:                                               ; preds = %15
  %19 = add nsw i32 %16, -1
  store i32 %19, ptr %10, align 4, !tbaa !8
  br label %lean_dec.exit

20:                                               ; preds = %15
  %.not.i = icmp eq i32 %16, 0
  br i1 %.not.i, label %lean_dec.exit, label %21

21:                                               ; preds = %20
  tail call void @lean_dec_ref_cold(ptr noundef nonnull %10) #6
  br label %lean_dec.exit

lean_dec.exit:                                    ; preds = %21, %20, %18, %lean_alloc_ctor.exit
  %22 = load ptr, ptr @l_Lake_mathLeanConfigFileContents___closed__1, align 8, !tbaa !4
  %23 = tail call ptr @lean_string_append(ptr noundef %12, ptr noundef %22) #6
  %24 = tail call ptr @lean_string_append(ptr noundef %23, ptr noundef %1) #6
  %25 = load ptr, ptr @l_Lake_mathLeanConfigFileContents___closed__2, align 8, !tbaa !4
  %26 = tail call ptr @lean_string_append(ptr noundef %24, ptr noundef %25) #6
  ret ptr %26
}